target datalayout = "e-m:e-p270:32:32-p271:32:32-p272:64:64-i64:64-i128:128-f80:128-n8:16:32:64-S128"
target triple = "x86_64-pc-linux-gnu"

@.str.1 = private unnamed_addr constant [13 x i8] c"script_lua.c\00", align 1
@.str.105 = private unnamed_addr constant [52 x i8] c"lua stack limit reach when parsing redis.call reply\00", align 1
@.str.108 = private unnamed_addr constant [4 x i8] c"set\00", align 1

; Function Attrs: nounwind uwtable
define internal void @redisProtocolToLuaType_Set(ptr noundef %0, ptr noundef %1, i64 noundef %2, ptr noundef %3) #0 {
  %5 = alloca ptr, align 8
  %6 = alloca ptr, align 8
  %7 = alloca i64, align 8
  %8 = alloca ptr, align 8
  %9 = alloca ptr, align 8
  %10 = alloca i64, align 8
  store ptr %0, ptr %5, align 8, !tbaa !123
  store ptr %1, ptr %6, align 8, !tbaa !12
  store i64 %2, ptr %7, align 8, !tbaa !23
  store ptr %3, ptr %8, align 8, !tbaa !10
  call void @llvm.lifetime.start.p0(i64 8, ptr %9) #12
  %11 = load ptr, ptr %6, align 8, !tbaa !12
  store ptr %11, ptr %9, align 8, !tbaa !5
  %12 = load ptr, ptr %9, align 8, !tbaa !5
  %13 = icmp ne ptr %12, null
  br i1 %13, label %14, label %23

14:                                               ; preds = %4
  %15 = load ptr, ptr %9, align 8, !tbaa !5
  %16 = call i32 @lua_checkstack(ptr noundef %15, i32 noundef 3)
  %17 = icmp ne i32 %16, 0
  br i1 %17, label %19, label %18

18:                                               ; preds = %14
  call void (ptr, i32, ptr, ...) @_serverPanic(ptr noundef @.str.1, i32 noundef 352, ptr noundef @.str.105)
  call void @abort() #11
  unreachable

19:                                               ; preds = %14
  %20 = load ptr, ptr %9, align 8, !tbaa !5
  call void @lua_createtable(ptr noundef %20, i32 noundef 0, i32 noundef 0)
  %21 = load ptr, ptr %9, align 8, !tbaa !5
  call void @lua_pushstring(ptr noundef %21, ptr noundef @.str.108)
  %22 = load ptr, ptr %9, align 8, !tbaa !5
  call void @lua_createtable(ptr noundef %22, i32 noundef 0, i32 noundef 0)
  br label %23

23:                                               ; preds = %19, %4
  call void @llvm.lifetime.start.p0(i64 8, ptr %10) #12
  store i64 0, ptr %10, align 8, !tbaa !23
  br label %24

24:                                               ; preds = %44, %23
  %25 = load i64, ptr %10, align 8, !tbaa !23
  %26 = load i64, ptr %7, align 8, !tbaa !23
  %27 = icmp ult i64 %25, %26
  br i1 %27, label %29, label %28

28:                                               ; preds = %24
  call void @llvm.lifetime.end.p0(i64 8, ptr %10) #12
  br label %47

29:                                               ; preds = %24
  %30 = load ptr, ptr %5, align 8, !tbaa !123
  %31 = load ptr, ptr %9, align 8, !tbaa !5
  %32 = call i32 @parseReply(ptr noundef %30, ptr noundef %31)
  %33 = load ptr, ptr %9, align 8, !tbaa !5
  %34 = icmp ne ptr %33, null
  br i1 %34, label %35, label %43

35:                                               ; preds = %29
  %36 = load ptr, ptr %9, align 8, !tbaa !5
  %37 = call i32 @lua_checkstack(ptr noundef %36, i32 noundef 1)
  %38 = icmp ne i32 %37, 0
  br i1 %38, label %40, label %39

39:                                               ; preds = %35
  call void (ptr, i32, ptr, ...) @_serverPanic(ptr noundef @.str.1, i32 noundef 366, ptr noundef @.str.105)
  call void @abort() #11
  unreachable

40:                                               ; preds = %35
  %41 = load ptr, ptr %9, align 8, !tbaa !5
  call void @lua_pushboolean(ptr noundef %41, i32 noundef 1)
  %42 = load ptr, ptr %9, align 8, !tbaa !5
  call void @lua_settable(ptr noundef %42, i32 noundef -3)
  br label %43

43:                                               ; preds = %40, %29
  br label %44

44:                                               ; preds = %43
  %45 = load i64, ptr %10, align 8, !tbaa !23
  %46 = add i64 %45, 1
  store i64 %46, ptr %10, align 8, !tbaa !23
  br label %24, !llvm.loop !126

47:                                               ; preds = %28
  %48 = load ptr, ptr %9, align 8, !tbaa !5
  %49 = icmp ne ptr %48, null
  br i1 %49, label %50, label %52

50:                                               ; preds = %47
  %51 = load ptr, ptr %9, align 8, !tbaa !5
  call void @lua_settable(ptr noundef %51, i32 noundef -3)
  br label %52

52:                                               ; preds = %50, %47
  call void @llvm.lifetime.end.p0(i64 8, ptr %9) #12
  ret void
}