; Function Attrs: nounwind uwtable
define internal void @redisProtocolToLuaType_Set(ptr noundef %0, ptr noundef %1, i64 noundef %2, ptr readnone captures(none) %3) #0 {
  %.not = icmp eq ptr %1, null
  br i1 %.not, label %8, label %5

5:                                                ; preds = %4
  %6 = tail call i32 @lua_checkstack(ptr noundef nonnull %1, i32 noundef 3) #11
  %.not17 = icmp eq i32 %6, 0
  br i1 %.not17, label %7, label %.thread

7:                                                ; preds = %5
  tail call void (ptr, i32, ptr, ...) @_serverPanic(ptr noundef nonnull @.str.1, i32 noundef 352, ptr noundef nonnull @.str.105) #11
  tail call void @abort() #12
  unreachable

8:                                                ; preds = %4
  %.not20 = icmp eq i64 %2, 0
  br i1 %.not20, label %._crit_edge, label %.lr.ph.split.us

.thread:                                          ; preds = %5
  tail call void @lua_createtable(ptr noundef nonnull %1, i32 noundef 0, i32 noundef 0) #11
  tail call void @lua_pushstring(ptr noundef nonnull %1, ptr noundef nonnull @.str.108) #11
  tail call void @lua_createtable(ptr noundef nonnull %1, i32 noundef 0, i32 noundef 0) #11
  %.not2023 = icmp eq i64 %2, 0
  br i1 %.not2023, label %._crit_edge.thread, label %.lr.ph.split

.lr.ph.split.us:                                  ; preds = %8, %.lr.ph.split.us
  %.019.us = phi i64 [ %10, %.lr.ph.split.us ], [ 0, %8 ]
  %9 = tail call i32 @parseReply(ptr noundef %0, ptr noundef null) #11
  %10 = add nuw i64 %.019.us, 1
  %exitcond22.not = icmp eq i64 %10, %2
  br i1 %exitcond22.not, label %._crit_edge, label %.lr.ph.split.us, !llvm.loop !107

.lr.ph.split:                                     ; preds = %.thread, %14
  %.019 = phi i64 [ %15, %14 ], [ 0, %.thread ]
  %11 = tail call i32 @parseReply(ptr noundef %0, ptr noundef nonnull %1) #11
  %12 = tail call i32 @lua_checkstack(ptr noundef nonnull %1, i32 noundef 1) #11
  %.not18 = icmp eq i32 %12, 0
  br i1 %.not18, label %13, label %14

13:                                               ; preds = %.lr.ph.split
  tail call void (ptr, i32, ptr, ...) @_serverPanic(ptr noundef nonnull @.str.1, i32 noundef 366, ptr noundef nonnull @.str.105) #11
  tail call void @abort() #12
  unreachable

14:                                               ; preds = %.lr.ph.split
  tail call void @lua_pushboolean(ptr noundef nonnull %1, i32 noundef 1) #11
  tail call void @lua_settable(ptr noundef nonnull %1, i32 noundef -3) #11
  %15 = add nuw i64 %.019, 1
  %exitcond.not = icmp eq i64 %15, %2
  br i1 %exitcond.not, label %._crit_edge.thread, label %.lr.ph.split, !llvm.loop !107

._crit_edge.thread:                               ; preds = %14, %.thread
  tail call void @lua_settable(ptr noundef nonnull %1, i32 noundef -3) #11
  br label %._crit_edge

._crit_edge:                                      ; preds = %.lr.ph.split.us, %8, %._crit_edge.thread
  ret void
}